; Function Attrs: nounwind uwtable
define ptr @l_Lean_Compiler_LCNF_Simp_markUsedFunDecl___boxed(ptr noundef %0, ptr noundef %1, ptr noundef %2, ptr noundef %3, ptr noundef %4, ptr noundef %5, ptr noundef %6, ptr noundef %7, ptr noundef %8) local_unnamed_addr #0 {
  %10 = getelementptr inbounds nuw i8, ptr %0, i64 40
  %11 = load ptr, ptr %10, align 8, !tbaa !4
  %12 = ptrtoint ptr %11 to i64
  %13 = and i64 %12, 1
  %.not.i35 = icmp eq i64 %13, 0
  br i1 %.not.i35, label %14, label %lean_inc.exit.i

14:                                               ; preds = %9
  %.val.i.i = load i32, ptr %11, align 4, !tbaa !8
  %15 = icmp sgt i32 %.val.i.i, 0
  br i1 %15, label %16, label %18, !prof !11

16:                                               ; preds = %14
  %17 = add nuw i32 %.val.i.i, 1
  store i32 %17, ptr %11, align 4, !tbaa !8
  br label %lean_inc.exit.i

18:                                               ; preds = %14
  %.not.i13.i = icmp eq i32 %.val.i.i, 0
  br i1 %.not.i13.i, label %lean_inc.exit.i, label %19

19:                                               ; preds = %18
  tail call void @lean_inc_ref_cold(ptr noundef nonnull %11) #4
  br label %lean_inc.exit.i

lean_inc.exit.i:                                  ; preds = %19, %18, %16, %9
  %20 = ptrtoint ptr %0 to i64
  %21 = and i64 %20, 1
  %.not14.i = icmp eq i64 %21, 0
  br i1 %.not14.i, label %22, label %l_Lean_Compiler_LCNF_Simp_markUsedFunDecl.exit

22:                                               ; preds = %lean_inc.exit.i
  %23 = load i32, ptr %0, align 4, !tbaa !8
  %24 = icmp sgt i32 %23, 1
  br i1 %24, label %25, label %27, !prof !11

25:                                               ; preds = %22
  %26 = add nsw i32 %23, -1
  store i32 %26, ptr %0, align 4, !tbaa !8
  br label %l_Lean_Compiler_LCNF_Simp_markUsedFunDecl.exit

27:                                               ; preds = %22
  %.not.i.i = icmp eq i32 %23, 0
  br i1 %.not.i.i, label %l_Lean_Compiler_LCNF_Simp_markUsedFunDecl.exit, label %28

28:                                               ; preds = %27
  tail call void @lean_dec_ref_cold(ptr noundef nonnull %0) #4
  br label %l_Lean_Compiler_LCNF_Simp_markUsedFunDecl.exit

l_Lean_Compiler_LCNF_Simp_markUsedFunDecl.exit:   ; preds = %lean_inc.exit.i, %25, %27, %28
  %29 = tail call ptr @l_Lean_Compiler_LCNF_Simp_markUsedCode(ptr noundef %11, ptr noundef readnone %1, ptr noundef %2, ptr noundef readnone %3, ptr noundef readnone %4, ptr noundef readnone %5, ptr noundef readnone %6, ptr noundef readnone %7, ptr noundef %8)
  %30 = ptrtoint ptr %7 to i64
  %31 = and i64 %30, 1
  %.not = icmp eq i64 %31, 0
  br i1 %.not, label %32, label %lean_dec.exit22

32:                                               ; preds = %l_Lean_Compiler_LCNF_Simp_markUsedFunDecl.exit
  %33 = load i32, ptr %7, align 4, !tbaa !8
  %34 = icmp sgt i32 %33, 1
  br i1 %34, label %35, label %37, !prof !11

35:                                               ; preds = %32
  %36 = add nsw i32 %33, -1
  store i32 %36, ptr %7, align 4, !tbaa !8
  br label %lean_dec.exit22

37:                                               ; preds = %32
  %.not.i = icmp eq i32 %33, 0
  br i1 %.not.i, label %lean_dec.exit22, label %38

38:                                               ; preds = %37
  tail call void @lean_dec_ref_cold(ptr noundef nonnull %7) #4
  br label %lean_dec.exit22

lean_dec.exit22:                                  ; preds = %38, %37, %35, %l_Lean_Compiler_LCNF_Simp_markUsedFunDecl.exit
  %39 = ptrtoint ptr %6 to i64
  %40 = and i64 %39, 1
  %.not36 = icmp eq i64 %40, 0
  br i1 %.not36, label %41, label %lean_dec.exit21

41:                                               ; preds = %lean_dec.exit22
  %42 = load i32, ptr %6, align 4, !tbaa !8
  %43 = icmp sgt i32 %42, 1
  br i1 %43, label %44, label %46, !prof !11

44:                                               ; preds = %41
  %45 = add nsw i32 %42, -1
  store i32 %45, ptr %6, align 4, !tbaa !8
  br label %lean_dec.exit21

46:                                               ; preds = %41
  %.not.i23 = icmp eq i32 %42, 0
  br i1 %.not.i23, label %lean_dec.exit21, label %47

47:                                               ; preds = %46
  tail call void @lean_dec_ref_cold(ptr noundef nonnull %6) #4
  br label %lean_dec.exit21

lean_dec.exit21:                                  ; preds = %47, %46, %44, %lean_dec.exit22
  %48 = ptrtoint ptr %5 to i64
  %49 = and i64 %48, 1
  %.not37 = icmp eq i64 %49, 0
  br i1 %.not37, label %50, label %lean_dec.exit20

50:                                               ; preds = %lean_dec.exit21
  %51 = load i32, ptr %5, align 4, !tbaa !8
  %52 = icmp sgt i32 %51, 1
  br i1 %52, label %53, label %55, !prof !11

53:                                               ; preds = %50
  %54 = add nsw i32 %51, -1
  store i32 %54, ptr %5, align 4, !tbaa !8
  br label %lean_dec.exit20

55:                                               ; preds = %50
  %.not.i25 = icmp eq i32 %51, 0
  br i1 %.not.i25, label %lean_dec.exit20, label %56

56:                                               ; preds = %55
  tail call void @lean_dec_ref_cold(ptr noundef nonnull %5) #4
  br label %lean_dec.exit20

lean_dec.exit20:                                  ; preds = %56, %55, %53, %lean_dec.exit21
  %57 = ptrtoint ptr %4 to i64
  %58 = and i64 %57, 1
  %.not38 = icmp eq i64 %58, 0
  br i1 %.not38, label %59, label %lean_dec.exit19

59:                                               ; preds = %lean_dec.exit20
  %60 = load i32, ptr %4, align 4, !tbaa !8
  %61 = icmp sgt i32 %60, 1
  br i1 %61, label %62, label %64, !prof !11

62:                                               ; preds = %59
  %63 = add nsw i32 %60, -1
  store i32 %63, ptr %4, align 4, !tbaa !8
  br label %lean_dec.exit19

64:                                               ; preds = %59
  %.not.i27 = icmp eq i32 %60, 0
  br i1 %.not.i27, label %lean_dec.exit19, label %65

65:                                               ; preds = %64
  tail call void @lean_dec_ref_cold(ptr noundef nonnull %4) #4
  br label %lean_dec.exit19

lean_dec.exit19:                                  ; preds = %65, %64, %62, %lean_dec.exit20
  %66 = ptrtoint ptr %3 to i64
  %67 = and i64 %66, 1
  %.not39 = icmp eq i64 %67, 0
  br i1 %.not39, label %68, label %lean_dec.exit18

68:                                               ; preds = %lean_dec.exit19
  %69 = load i32, ptr %3, align 4, !tbaa !8
  %70 = icmp sgt i32 %69, 1
  br i1 %70, label %71, label %73, !prof !11

71:                                               ; preds = %68
  %72 = add nsw i32 %69, -1
  store i32 %72, ptr %3, align 4, !tbaa !8
  br label %lean_dec.exit18

73:                                               ; preds = %68
  %.not.i29 = icmp eq i32 %69, 0
  br i1 %.not.i29, label %lean_dec.exit18, label %74

74:                                               ; preds = %73
  tail call void @lean_dec_ref_cold(ptr noundef nonnull %3) #4
  br label %lean_dec.exit18

lean_dec.exit18:                                  ; preds = %74, %73, %71, %lean_dec.exit19
  %75 = ptrtoint ptr %2 to i64
  %76 = and i64 %75, 1
  %.not40 = icmp eq i64 %76, 0
  br i1 %.not40, label %77, label %lean_dec.exit17

77:                                               ; preds = %lean_dec.exit18
  %78 = load i32, ptr %2, align 4, !tbaa !8
  %79 = icmp sgt i32 %78, 1
  br i1 %79, label %80, label %82, !prof !11

80:                                               ; preds = %77
  %81 = add nsw i32 %78, -1
  store i32 %81, ptr %2, align 4, !tbaa !8
  br label %lean_dec.exit17

82:                                               ; preds = %77
  %.not.i31 = icmp eq i32 %78, 0
  br i1 %.not.i31, label %lean_dec.exit17, label %83

83:                                               ; preds = %82
  tail call void @lean_dec_ref_cold(ptr noundef nonnull %2) #4
  br label %lean_dec.exit17

lean_dec.exit17:                                  ; preds = %83, %82, %80, %lean_dec.exit18
  %84 = ptrtoint ptr %1 to i64
  %85 = and i64 %84, 1
  %.not41 = icmp eq i64 %85, 0
  br i1 %.not41, label %86, label %lean_dec.exit

86:                                               ; preds = %lean_dec.exit17
  %87 = load i32, ptr %1, align 4, !tbaa !8
  %88 = icmp sgt i32 %87, 1
  br i1 %88, label %89, label %91, !prof !11

89:                                               ; preds = %86
  %90 = add nsw i32 %87, -1
  store i32 %90, ptr %1, align 4, !tbaa !8
  br label %lean_dec.exit

91:                                               ; preds = %86
  %.not.i33 = icmp eq i32 %87, 0
  br i1 %.not.i33, label %lean_dec.exit, label %92

92:                                               ; preds = %91
  tail call void @lean_dec_ref_cold(ptr noundef nonnull %1) #4
  br label %lean_dec.exit

lean_dec.exit:                                    ; preds = %92, %91, %89, %lean_dec.exit17
  ret ptr %29
}